; Function Attrs: mustprogress uwtable
define void @_ZN4cvc56parser13SymbolManagerC2EPNS_6SolverE(ptr noundef nonnull align 8 dereferenceable(16) %this, ptr noundef %s) unnamed_addr #3 align 2 personality ptr @__gxx_personality_v0 {
entry:
  tail call void @llvm.memset.p0.i64(ptr noundef nonnull align 8 dereferenceable(16) %this, i8 0, i64 16, i1 false)
  %call = invoke noalias noundef nonnull dereferenceable(56) ptr @_Znwm(i64 noundef 56) #20
          to label %invoke.cont unwind label %lpad

invoke.cont:                                      ; preds = %entry
  invoke void @_ZN4cvc56parser10SymManagerC1EPNS_6SolverE(ptr noundef nonnull align 8 dereferenceable(56) %call, ptr noundef %s)
          to label %invoke.cont4 unwind label %lpad3

invoke.cont4:                                     ; preds = %invoke.cont
  invoke void @_ZNSt12__shared_ptrIN4cvc56parser10SymManagerELN9__gnu_cxx12_Lock_policyE2EE5resetIS2_EENSt9enable_ifIXsr21__sp_is_constructibleIS2_T_EE5valueEvE4typeEPS8_(ptr noundef nonnull align 8 dereferenceable(16) %this, ptr noundef nonnull %call)
          to label %invoke.cont5 unwind label %lpad

invoke.cont5:                                     ; preds = %invoke.cont4
  ret void

lpad:                                             ; preds = %invoke.cont4, %entry
  %0 = landingpad { ptr, i32 }
          cleanup
  br label %ehcleanup

lpad3:                                            ; preds = %invoke.cont
  %1 = landingpad { ptr, i32 }
          cleanup
  tail call void @_ZdlPv(ptr noundef nonnull %call) #21
  br label %ehcleanup

ehcleanup:                                        ; preds = %lpad3, %lpad
  %.pn = phi { ptr, i32 } [ %0, %lpad ], [ %1, %lpad3 ]
  tail call void @_ZNSt10shared_ptrIN4cvc56parser10SymManagerEED2Ev(ptr noundef nonnull align 8 dereferenceable(16) %this) #22
  resume { ptr, i32 } %.pn
}